; Function Attrs: mustprogress nofree norecurse nosync nounwind willreturn memory(none) uwtable
define noundef nonnull ptr @l_Lean_ConstantKind_toCtorIdx(i8 noundef zeroext %0) local_unnamed_addr #5 {
  switch i8 %0, label %8 [
    i8 0, label %9
    i8 1, label %2
    i8 2, label %3
    i8 3, label %4
    i8 4, label %5
    i8 5, label %6
    i8 6, label %7
  ]

2:                                                ; preds = %1
  br label %9

3:                                                ; preds = %1
  br label %9

4:                                                ; preds = %1
  br label %9

5:                                                ; preds = %1
  br label %9

6:                                                ; preds = %1
  br label %9

7:                                                ; preds = %1
  br label %9

8:                                                ; preds = %1
  br label %9

9:                                                ; preds = %1, %8, %7, %6, %5, %4, %3, %2
  %.0 = phi ptr [ inttoptr (i64 15 to ptr), %8 ], [ inttoptr (i64 13 to ptr), %7 ], [ inttoptr (i64 11 to ptr), %6 ], [ inttoptr (i64 9 to ptr), %5 ], [ inttoptr (i64 7 to ptr), %4 ], [ inttoptr (i64 5 to ptr), %3 ], [ inttoptr (i64 3 to ptr), %2 ], [ inttoptr (i64 1 to ptr), %1 ]
  ret ptr %.0
}